; Function Attrs: mustprogress uwtable
define void @_ZN13ATapDataModel9setFilterE7QString(ptr noundef nonnull align 8 dereferenceable(120) %0, ptr noundef %1) local_unnamed_addr #0 align 2 personality ptr @__gxx_personality_v0 {
  %3 = alloca %class.QByteArray, align 8
  %4 = getelementptr inbounds i8, ptr %0, i64 59
  %5 = load i8, ptr %4, align 1
  %6 = and i8 %5, 1
  %.not = icmp eq i8 %6, 0
  br i1 %.not, label %7, label %.critedge

7:                                                ; preds = %2
  %8 = getelementptr inbounds i8, ptr %0, i64 32
  %9 = tail call noundef nonnull align 8 dereferenceable(24) ptr @_ZN7QStringaSERKS_(ptr noundef nonnull align 8 dereferenceable(24) %8, ptr noundef nonnull align 8 dereferenceable(24) %1) #23
  %10 = getelementptr inbounds i8, ptr %0, i64 88
  %11 = getelementptr inbounds i8, ptr %0, i64 48
  %12 = load i64, ptr %11, align 8
  %.not17 = icmp eq i64 %12, 0
  br i1 %.not17, label %16, label %13

13:                                               ; preds = %7
  call void @_ZN7QString13toUtf8_helperERKS_(ptr dead_on_unwind nonnull writable sret(%class.QByteArray) align 8 %3, ptr noundef nonnull align 8 dereferenceable(24) %8)
  %14 = getelementptr inbounds i8, ptr %3, i64 8
  %15 = load ptr, ptr %14, align 8
  %.not.i.i = icmp eq ptr %15, null
  %spec.select.i.i = select i1 %.not.i.i, ptr @_ZN10QByteArray6_emptyE, ptr %15
  br label %16

16:                                               ; preds = %13, %7
  %17 = phi ptr [ null, %7 ], [ %spec.select.i.i, %13 ]
  %18 = invoke ptr @set_tap_dfilter(ptr noundef nonnull %10, ptr noundef %17)
          to label %19 unwind label %32

19:                                               ; preds = %16
  br i1 %.not17, label %_ZN10QByteArrayD2Ev.exit, label %20

20:                                               ; preds = %19
  %21 = load ptr, ptr %3, align 8
  %.not.i.i.i = icmp eq ptr %21, null
  br i1 %.not.i.i.i, label %_ZN10QByteArrayD2Ev.exit, label %_ZN17QArrayDataPointerIcE5derefEv.exit.i.i

_ZN17QArrayDataPointerIcE5derefEv.exit.i.i:       ; preds = %20
  %22 = atomicrmw sub ptr %21, i32 1 seq_cst, align 4
  %.not.i.i12 = icmp eq i32 %22, 1
  br i1 %.not.i.i12, label %23, label %_ZN10QByteArrayD2Ev.exit

23:                                               ; preds = %_ZN17QArrayDataPointerIcE5derefEv.exit.i.i
  %24 = load ptr, ptr %3, align 8
  call void @_ZN10QArrayData10deallocateEPS_xx(ptr noundef %24, i64 noundef 1, i64 noundef 8) #23
  br label %_ZN10QByteArrayD2Ev.exit

_ZN10QByteArrayD2Ev.exit:                         ; preds = %23, %_ZN17QArrayDataPointerIcE5derefEv.exit.i.i, %20, %19
  %.not10 = icmp eq ptr %18, null
  br i1 %.not10, label %.critedge, label %25

25:                                               ; preds = %_ZN10QByteArrayD2Ev.exit
  %26 = getelementptr inbounds i8, ptr %18, i64 8
  %27 = load i64, ptr %26, align 8
  %.not11 = icmp eq i64 %27, 0
  br i1 %.not11, label %39, label %28

28:                                               ; preds = %25
  %29 = load i8, ptr %4, align 1
  %30 = and i8 %29, 1
  %.not.i = icmp eq i8 %30, 0
  br i1 %.not.i, label %31, label %_ZN13ATapDataModel10disableTapEv.exit

31:                                               ; preds = %28
  call void @remove_tap_listener(ptr noundef nonnull %10)
  br label %_ZN13ATapDataModel10disableTapEv.exit

_ZN13ATapDataModel10disableTapEv.exit:            ; preds = %28, %31
  store i8 1, ptr %4, align 1
  call void @_ZN13ATapDataModel18tapListenerChangedEb(ptr noundef nonnull align 8 dereferenceable(120) %0, i1 noundef zeroext false)
  br label %39

32:                                               ; preds = %16
  %33 = landingpad { ptr, i32 }
          cleanup
  br i1 %.not17, label %_ZN10QByteArrayD2Ev.exit16, label %34

34:                                               ; preds = %32
  %35 = load ptr, ptr %3, align 8
  %.not.i.i.i13 = icmp eq ptr %35, null
  br i1 %.not.i.i.i13, label %_ZN10QByteArrayD2Ev.exit16, label %_ZN17QArrayDataPointerIcE5derefEv.exit.i.i14

_ZN17QArrayDataPointerIcE5derefEv.exit.i.i14:     ; preds = %34
  %36 = atomicrmw sub ptr %35, i32 1 seq_cst, align 4
  %.not.i.i15 = icmp eq i32 %36, 1
  br i1 %.not.i.i15, label %37, label %_ZN10QByteArrayD2Ev.exit16

37:                                               ; preds = %_ZN17QArrayDataPointerIcE5derefEv.exit.i.i14
  %38 = load ptr, ptr %3, align 8
  call void @_ZN10QArrayData10deallocateEPS_xx(ptr noundef %38, i64 noundef 1, i64 noundef 8) #23
  br label %_ZN10QByteArrayD2Ev.exit16

39:                                               ; preds = %25, %_ZN13ATapDataModel10disableTapEv.exit
  %40 = call ptr @g_string_free(ptr noundef nonnull %18, i32 noundef 1)
  br label %.critedge

.critedge:                                        ; preds = %_ZN10QByteArrayD2Ev.exit, %2, %39
  ret void

_ZN10QByteArrayD2Ev.exit16:                       ; preds = %37, %_ZN17QArrayDataPointerIcE5derefEv.exit.i.i14, %34, %32
  resume { ptr, i32 } %33
}